; Function Attrs: null_pointer_is_valid sspstrong uwtable
define internal range(i32 -268435456, 268435456) i32 @dissect_EndIndication_PDU(ptr noundef %0, ptr noundef %1, ptr noundef %2, ptr readnone captures(none) %3) #0 {
  %5 = alloca %struct._asn1_ctx_t, align 8
  call void @llvm.lifetime.start.p0(i64 208, ptr nonnull %5) #12
  call void @asn1_ctx_init(ptr noundef nonnull %5, i32 noundef 1, i1 noundef zeroext true, ptr noundef %1)
  %6 = load i32, ptr @hf_ngap_EndIndication_PDU, align 4
  %7 = call i32 @dissect_per_enumerated(ptr noundef %0, i32 noundef 0, ptr noundef nonnull %5, ptr noundef %2, i32 noundef %6, i32 noundef 2, ptr noundef null, i1 noundef zeroext true, i32 noundef 0, ptr noundef null)
  %8 = add i32 %7, 7
  %9 = ashr i32 %8, 3
  call void @llvm.lifetime.end.p0(i64 208, ptr nonnull %5) #12
  ret i32 %9
}